; Function Attrs: mustprogress uwtable
define noundef i32 @_ZN6icu_776number4impl10AffixUtils23unescapedCodePointCountERKNS_13UnicodeStringERKNS1_14SymbolProviderER10UErrorCode(ptr noundef nonnull align 8 dereferenceable(64) %0, ptr noundef nonnull align 8 dereferenceable(8) %1, ptr noundef nonnull align 4 captures(none) dereferenceable(4) %2) local_unnamed_addr #3 align 2 personality ptr @__gxx_personality_v0 {
  %4 = alloca %"class.icu_77::UnicodeString", align 8
  %5 = getelementptr inbounds nuw i8, ptr %0, i64 8
  %6 = getelementptr inbounds nuw i8, ptr %0, i64 12
  %7 = getelementptr inbounds nuw i8, ptr %0, i64 10
  %8 = getelementptr inbounds nuw i8, ptr %0, i64 24
  %9 = getelementptr inbounds nuw i8, ptr %4, i64 8
  %10 = getelementptr inbounds nuw i8, ptr %4, i64 12
  br label %11

11:                                               ; preds = %3, %72
  %.sroa.0.0.extract.trunc26 = phi i32 [ 0, %3 ], [ %.sroa.0.0.extract.trunc, %72 ]
  %.01325 = phi i32 [ 0, %3 ], [ %.1, %72 ]
  %.sroa.0.024 = phi i64 [ 0, %3 ], [ %47, %72 ]
  %.sroa.8.023 = phi i64 [ 0, %3 ], [ %48, %72 ]
  %12 = icmp eq i32 %.sroa.0.0.extract.trunc26, 0
  br i1 %12, label %13, label %21

13:                                               ; preds = %11
  %14 = load i16, ptr %5, align 8, !tbaa !3
  %15 = icmp slt i16 %14, 0
  %16 = ashr i16 %14, 5
  %17 = sext i16 %16 to i32
  %18 = load i32, ptr %6, align 4
  %19 = select i1 %15, i32 %18, i32 %17
  %20 = icmp sgt i32 %19, 0
  br i1 %20, label %_ZN6icu_776number4impl10AffixUtils7hasNextERKNS1_8AffixTagERKNS_13UnicodeStringE.exit.thread, label %_ZN6icu_776number4impl10AffixUtils7hasNextERKNS1_8AffixTagERKNS_13UnicodeStringE.exit.thread21

21:                                               ; preds = %11
  %.sroa.8.8.extract.trunc = trunc i64 %.sroa.8.023 to i32
  switch i32 %.sroa.8.8.extract.trunc, label %_ZN6icu_776number4impl10AffixUtils7hasNextERKNS1_8AffixTagERKNS_13UnicodeStringE.exit.thread [
    i32 2, label %22
    i32 0, label %_ZN6icu_776number4impl10AffixUtils7hasNextERKNS1_8AffixTagERKNS_13UnicodeStringE.exit
  ]

22:                                               ; preds = %21
  %23 = load i16, ptr %5, align 8, !tbaa !3
  %24 = icmp slt i16 %23, 0
  %25 = ashr i16 %23, 5
  %26 = sext i16 %25 to i32
  %27 = load i32, ptr %6, align 4
  %28 = select i1 %24, i32 %27, i32 %26
  %29 = add nsw i32 %28, -1
  %30 = icmp eq i32 %29, %.sroa.0.0.extract.trunc26
  %31 = icmp ugt i32 %28, %.sroa.0.0.extract.trunc26
  %or.cond.i = and i1 %31, %30
  br i1 %or.cond.i, label %_ZNK6icu_7713UnicodeString6charAtEi.exit.i, label %_ZN6icu_776number4impl10AffixUtils7hasNextERKNS1_8AffixTagERKNS_13UnicodeStringE.exit.thread

_ZNK6icu_7713UnicodeString6charAtEi.exit.i:       ; preds = %22
  %32 = and i16 %23, 2
  %.not.i.i.i.i = icmp eq i16 %32, 0
  %33 = load ptr, ptr %8, align 8
  %34 = select i1 %.not.i.i.i.i, ptr %33, ptr %7
  %35 = and i64 %.sroa.0.024, 2147483647
  %36 = getelementptr inbounds nuw i16, ptr %34, i64 %35
  %37 = load i16, ptr %36, align 2, !tbaa !13
  %38 = icmp eq i16 %37, 39
  br i1 %38, label %_ZN6icu_776number4impl10AffixUtils7hasNextERKNS1_8AffixTagERKNS_13UnicodeStringE.exit.thread21, label %_ZN6icu_776number4impl10AffixUtils7hasNextERKNS1_8AffixTagERKNS_13UnicodeStringE.exit.thread

_ZN6icu_776number4impl10AffixUtils7hasNextERKNS1_8AffixTagERKNS_13UnicodeStringE.exit: ; preds = %21
  %39 = load i16, ptr %5, align 8, !tbaa !3
  %40 = icmp slt i16 %39, 0
  %41 = ashr i16 %39, 5
  %42 = sext i16 %41 to i32
  %43 = load i32, ptr %6, align 4
  %44 = select i1 %40, i32 %43, i32 %42
  %45 = icmp sgt i32 %44, %.sroa.0.0.extract.trunc26
  br i1 %45, label %_ZN6icu_776number4impl10AffixUtils7hasNextERKNS1_8AffixTagERKNS_13UnicodeStringE.exit.thread, label %_ZN6icu_776number4impl10AffixUtils7hasNextERKNS1_8AffixTagERKNS_13UnicodeStringE.exit.thread21

_ZN6icu_776number4impl10AffixUtils7hasNextERKNS1_8AffixTagERKNS_13UnicodeStringE.exit.thread: ; preds = %22, %_ZNK6icu_7713UnicodeString6charAtEi.exit.i, %21, %13, %_ZN6icu_776number4impl10AffixUtils7hasNextERKNS1_8AffixTagERKNS_13UnicodeStringE.exit
  %46 = call { i64, i64 } @_ZN6icu_776number4impl10AffixUtils9nextTokenENS1_8AffixTagERKNS_13UnicodeStringER10UErrorCode(i64 %.sroa.0.024, i64 %.sroa.8.023, ptr noundef nonnull align 8 dereferenceable(64) %0, ptr noundef nonnull align 4 dereferenceable(4) %2)
  %47 = extractvalue { i64, i64 } %46, 0
  %48 = extractvalue { i64, i64 } %46, 1
  %49 = load i32, ptr %2, align 4, !tbaa !8
  %50 = icmp slt i32 %49, 1
  br i1 %50, label %51, label %_ZN6icu_776number4impl10AffixUtils7hasNextERKNS1_8AffixTagERKNS_13UnicodeStringE.exit.thread21

51:                                               ; preds = %_ZN6icu_776number4impl10AffixUtils7hasNextERKNS1_8AffixTagERKNS_13UnicodeStringE.exit.thread
  %.sroa.8.12.extract.shift17 = lshr i64 %48, 32
  %.sroa.8.12.extract.trunc18 = trunc nuw i64 %.sroa.8.12.extract.shift17 to i32
  %52 = icmp eq i64 %.sroa.8.12.extract.shift17, 4294967281
  br i1 %52, label %53, label %55

53:                                               ; preds = %51
  %54 = add nsw i32 %.01325, 1
  br label %72

55:                                               ; preds = %51
  %56 = icmp slt i64 %48, 0
  br i1 %56, label %57, label %68

57:                                               ; preds = %55
  call void @llvm.lifetime.start.p0(i64 64, ptr nonnull %4) #11
  %58 = load ptr, ptr %1, align 8, !tbaa !10
  %59 = getelementptr inbounds nuw i8, ptr %58, i64 16
  %60 = load ptr, ptr %59, align 8
  call void %60(ptr dead_on_unwind nonnull writable sret(%"class.icu_77::UnicodeString") align 8 %4, ptr noundef nonnull align 8 dereferenceable(8) %1, i32 noundef %.sroa.8.12.extract.trunc18)
  %61 = load i16, ptr %9, align 8, !tbaa !3
  %62 = icmp slt i16 %61, 0
  %63 = ashr i16 %61, 5
  %64 = sext i16 %63 to i32
  %65 = load i32, ptr %10, align 4
  %66 = select i1 %62, i32 %65, i32 %64
  %67 = add nsw i32 %66, %.01325
  call void @_ZN6icu_7713UnicodeStringD1Ev(ptr noundef nonnull align 8 dereferenceable(64) %4) #11
  call void @llvm.lifetime.end.p0(i64 64, ptr nonnull %4) #11
  br label %72

68:                                               ; preds = %55
  %69 = icmp ult i64 %47, 281474976710656
  %70 = select i1 %69, i32 1, i32 2
  %71 = add nsw i32 %70, %.01325
  br label %72

72:                                               ; preds = %57, %68, %53
  %.1 = phi i32 [ %54, %53 ], [ %67, %57 ], [ %71, %68 ]
  %.sroa.0.0.extract.trunc = trunc i64 %47 to i32
  %73 = icmp slt i32 %.sroa.0.0.extract.trunc, 0
  br i1 %73, label %_ZN6icu_776number4impl10AffixUtils7hasNextERKNS1_8AffixTagERKNS_13UnicodeStringE.exit.thread21, label %11, !llvm.loop !24

_ZN6icu_776number4impl10AffixUtils7hasNextERKNS1_8AffixTagERKNS_13UnicodeStringE.exit.thread21: ; preds = %_ZNK6icu_7713UnicodeString6charAtEi.exit.i, %72, %13, %_ZN6icu_776number4impl10AffixUtils7hasNextERKNS1_8AffixTagERKNS_13UnicodeStringE.exit, %_ZN6icu_776number4impl10AffixUtils7hasNextERKNS1_8AffixTagERKNS_13UnicodeStringE.exit.thread
  %.013.lcssa = phi i32 [ %.01325, %_ZNK6icu_7713UnicodeString6charAtEi.exit.i ], [ %.1, %72 ], [ %.01325, %13 ], [ %.01325, %_ZN6icu_776number4impl10AffixUtils7hasNextERKNS1_8AffixTagERKNS_13UnicodeStringE.exit ], [ %.01325, %_ZN6icu_776number4impl10AffixUtils7hasNextERKNS1_8AffixTagERKNS_13UnicodeStringE.exit.thread ]
  ret i32 %.013.lcssa
}